target datalayout = "e-m:e-p270:32:32-p271:32:32-p272:64:64-i64:64-i128:128-f80:128-n8:16:32:64-S128"
target triple = "x86_64-pc-linux-gnu"

%struct.rar = type { i32, i64, [2 x i8], [4 x i8], i8, i8, i32, i64, i64, i64, i64, i32, ptr, ptr, i64, i64, [8 x i8], i64, i64, i64, i64, i64, i64, i64, i64, i64, i64, i64, i64, i8, i32, i32, ptr, i32, i8, i8, i64, i32, i8, ptr, i32, i32, i8, %struct.huffman_code, %struct.huffman_code, %struct.huffman_code, %struct.huffman_code, [404 x i8], %struct.lzss, i32, i32, [4 x i32], i32, i32, i8, %struct.rar_filters, i8, i8, i8, i32, %struct.CPpmd7, %struct.CPpmd7z_RangeDec, %struct.IByteIn, i32, ptr, ptr, ptr, ptr, %struct.rar_br, i32 }
%struct.huffman_code = type { ptr, i32, i32, i32, i32, i32, ptr }
%struct.lzss = type { ptr, i32, i64 }
%struct.rar_filters = type { ptr, ptr, ptr, i64, i32, i64, ptr, i64 }
%struct.CPpmd7 = type { ptr, ptr, ptr, i32, i32, i32, i32, i32, i32, i32, i32, i32, ptr, ptr, ptr, ptr, ptr, i32, [38 x i8], [128 x i8], [38 x i32], [256 x i8], [256 x i8], [256 x i8], %struct.CPpmd_See, [25 x [16 x %struct.CPpmd_See]], [128 x [64 x i16]] }
%struct.CPpmd_See = type { i16, i8, i8 }
%struct.CPpmd7z_RangeDec = type { %struct.IPpmd7_RangeDec, i32, i32, i32, i32, ptr }
%struct.IPpmd7_RangeDec = type { ptr, ptr, ptr }
%struct.IByteIn = type { ptr, ptr }
%struct.rar_br = type { i64, i32, i64, ptr }
%struct.tm = type { i32, i32, i32, i32, i32, i32, i32, i32, i32, i64, ptr }

; Function Attrs: nounwind uwtable
define internal i64 @get_time(i32 noundef %0) #0 {
  %2 = alloca i32, align 4
  %3 = alloca %struct.tm, align 8
  store i32 %0, ptr %2, align 4
  %4 = load i32, ptr %2, align 4
  %5 = and i32 %4, 31
  %6 = mul nsw i32 2, %5
  %7 = getelementptr inbounds %struct.tm, ptr %3, i32 0, i32 0
  store i32 %6, ptr %7, align 8
  %8 = load i32, ptr %2, align 4
  %9 = ashr i32 %8, 5
  %10 = and i32 %9, 63
  %11 = getelementptr inbounds %struct.tm, ptr %3, i32 0, i32 1
  store i32 %10, ptr %11, align 4
  %12 = load i32, ptr %2, align 4
  %13 = ashr i32 %12, 11
  %14 = and i32 %13, 31
  %15 = getelementptr inbounds %struct.tm, ptr %3, i32 0, i32 2
  store i32 %14, ptr %15, align 8
  %16 = load i32, ptr %2, align 4
  %17 = ashr i32 %16, 16
  %18 = and i32 %17, 31
  %19 = getelementptr inbounds %struct.tm, ptr %3, i32 0, i32 3
  store i32 %18, ptr %19, align 4
  %20 = load i32, ptr %2, align 4
  %21 = ashr i32 %20, 21
  %22 = and i32 %21, 15
  %23 = sub nsw i32 %22, 1
  %24 = getelementptr inbounds %struct.tm, ptr %3, i32 0, i32 4
  store i32 %23, ptr %24, align 8
  %25 = load i32, ptr %2, align 4
  %26 = ashr i32 %25, 25
  %27 = and i32 %26, 127
  %28 = add nsw i32 %27, 80
  %29 = getelementptr inbounds %struct.tm, ptr %3, i32 0, i32 5
  store i32 %28, ptr %29, align 4
  %30 = getelementptr inbounds %struct.tm, ptr %3, i32 0, i32 8
  store i32 -1, ptr %30, align 8
  %31 = call i64 @mktime(ptr noundef %3) #12
  ret i64 %31
}

; Function Attrs: nounwind uwtable
define internal i32 @archive_le32dec(ptr noundef %0) #0 {
  %2 = alloca ptr, align 8
  %3 = alloca ptr, align 8
  %4 = alloca i32, align 4
  %5 = alloca i32, align 4
  %6 = alloca i32, align 4
  %7 = alloca i32, align 4
  store ptr %0, ptr %2, align 8
  %8 = load ptr, ptr %2, align 8
  store ptr %8, ptr %3, align 8
  %9 = load ptr, ptr %3, align 8
  %10 = getelementptr inbounds i8, ptr %9, i64 3
  %11 = load i8, ptr %10, align 1
  %12 = zext i8 %11 to i32
  store i32 %12, ptr %4, align 4
  %13 = load ptr, ptr %3, align 8
  %14 = getelementptr inbounds i8, ptr %13, i64 2
  %15 = load i8, ptr %14, align 1
  %16 = zext i8 %15 to i32
  store i32 %16, ptr %5, align 4
  %17 = load ptr, ptr %3, align 8
  %18 = getelementptr inbounds i8, ptr %17, i64 1
  %19 = load i8, ptr %18, align 1
  %20 = zext i8 %19 to i32
  store i32 %20, ptr %6, align 4
  %21 = load ptr, ptr %3, align 8
  %22 = getelementptr inbounds i8, ptr %21, i64 0
  %23 = load i8, ptr %22, align 1
  %24 = zext i8 %23 to i32
  store i32 %24, ptr %7, align 4
  %25 = load i32, ptr %4, align 4
  %26 = shl i32 %25, 24
  %27 = load i32, ptr %5, align 4
  %28 = shl i32 %27, 16
  %29 = or i32 %26, %28
  %30 = load i32, ptr %6, align 4
  %31 = shl i32 %30, 8
  %32 = or i32 %29, %31
  %33 = load i32, ptr %7, align 4
  %34 = or i32 %32, %33
  ret i32 %34
}

; Function Attrs: nounwind uwtable
define internal zeroext i16 @archive_le16dec(ptr noundef %0) #0 {
  %2 = alloca ptr, align 8
  %3 = alloca ptr, align 8
  %4 = alloca i32, align 4
  %5 = alloca i32, align 4
  store ptr %0, ptr %2, align 8
  %6 = load ptr, ptr %2, align 8
  store ptr %6, ptr %3, align 8
  %7 = load ptr, ptr %3, align 8
  %8 = getelementptr inbounds i8, ptr %7, i64 1
  %9 = load i8, ptr %8, align 1
  %10 = zext i8 %9 to i32
  store i32 %10, ptr %4, align 4
  %11 = load ptr, ptr %3, align 8
  %12 = getelementptr inbounds i8, ptr %11, i64 0
  %13 = load i8, ptr %12, align 1
  %14 = zext i8 %13 to i32
  store i32 %14, ptr %5, align 4
  %15 = load i32, ptr %4, align 4
  %16 = shl i32 %15, 8
  %17 = load i32, ptr %5, align 4
  %18 = or i32 %16, %17
  %19 = trunc i32 %18 to i16
  ret i16 %19
}

; Function Attrs: nounwind uwtable
define internal i32 @read_exttime(ptr noundef %0, ptr noundef %1, ptr noundef %2) #0 {
  %4 = alloca i32, align 4
  %5 = alloca ptr, align 8
  %6 = alloca ptr, align 8
  %7 = alloca ptr, align 8
  %8 = alloca i32, align 4
  %9 = alloca i32, align 4
  %10 = alloca i32, align 4
  %11 = alloca i32, align 4
  %12 = alloca i32, align 4
  %13 = alloca i32, align 4
  %14 = alloca i32, align 4
  %15 = alloca ptr, align 8
  %16 = alloca i64, align 8
  %17 = alloca i64, align 8
  %18 = alloca %struct.tm, align 8
  store ptr %0, ptr %5, align 8
  store ptr %1, ptr %6, align 8
  store ptr %2, ptr %7, align 8
  %19 = load ptr, ptr %5, align 8
  %20 = getelementptr inbounds i8, ptr %19, i64 2
  %21 = load ptr, ptr %7, align 8
  %22 = icmp ugt ptr %20, %21
  br i1 %22, label %23, label %24

23:                                               ; preds = %3
  store i32 -1, ptr %4, align 4
  br label %156

24:                                               ; preds = %3
  %25 = load ptr, ptr %5, align 8
  %26 = call zeroext i16 @archive_le16dec(ptr noundef %25)
  %27 = zext i16 %26 to i32
  store i32 %27, ptr %9, align 4
  %28 = load ptr, ptr %5, align 8
  %29 = getelementptr inbounds i8, ptr %28, i64 2
  store ptr %29, ptr %5, align 8
  store i32 3, ptr %14, align 4
  br label %30

30:                                               ; preds = %152, %24
  %31 = load i32, ptr %14, align 4
  %32 = icmp sge i32 %31, 0
  br i1 %32, label %33, label %155

33:                                               ; preds = %30
  store i64 0, ptr %16, align 8
  %34 = load i32, ptr %14, align 4
  %35 = icmp eq i32 %34, 3
  br i1 %35, label %36, label %40

36:                                               ; preds = %33
  %37 = load ptr, ptr %6, align 8
  %38 = getelementptr inbounds %struct.rar, ptr %37, i32 0, i32 9
  %39 = load i64, ptr %38, align 8
  store i64 %39, ptr %16, align 8
  br label %40

40:                                               ; preds = %36, %33
  %41 = load i32, ptr %9, align 4
  %42 = load i32, ptr %14, align 4
  %43 = mul nsw i32 %42, 4
  %44 = lshr i32 %41, %43
  store i32 %44, ptr %8, align 4
  %45 = load i32, ptr %8, align 4
  %46 = and i32 %45, 8
  %47 = icmp ne i32 %46, 0
  br i1 %47, label %48, label %151

48:                                               ; preds = %40
  %49 = load i64, ptr %16, align 8
  %50 = icmp ne i64 %49, 0
  br i1 %50, label %64, label %51

51:                                               ; preds = %48
  %52 = load ptr, ptr %5, align 8
  %53 = getelementptr inbounds i8, ptr %52, i64 4
  %54 = load ptr, ptr %7, align 8
  %55 = icmp ugt ptr %53, %54
  br i1 %55, label %56, label %57

56:                                               ; preds = %51
  store i32 -1, ptr %4, align 4
  br label %156

57:                                               ; preds = %51
  %58 = load ptr, ptr %5, align 8
  %59 = call i32 @archive_le32dec(ptr noundef %58)
  store i32 %59, ptr %13, align 4
  %60 = load i32, ptr %13, align 4
  %61 = call i64 @get_time(i32 noundef %60)
  store i64 %61, ptr %16, align 8
  %62 = load ptr, ptr %5, align 8
  %63 = getelementptr inbounds i8, ptr %62, i64 4
  store ptr %63, ptr %5, align 8
  br label %64

64:                                               ; preds = %57, %48
  store i32 0, ptr %10, align 4
  %65 = load i32, ptr %8, align 4
  %66 = and i32 %65, 3
  store i32 %66, ptr %12, align 4
  %67 = load ptr, ptr %5, align 8
  %68 = load i32, ptr %12, align 4
  %69 = zext i32 %68 to i64
  %70 = getelementptr inbounds i8, ptr %67, i64 %69
  %71 = load ptr, ptr %7, align 8
  %72 = icmp ugt ptr %70, %71
  br i1 %72, label %73, label %74

73:                                               ; preds = %64
  store i32 -1, ptr %4, align 4
  br label %156

74:                                               ; preds = %64
  store i32 0, ptr %11, align 4
  br label %75

75:                                               ; preds = %89, %74
  %76 = load i32, ptr %11, align 4
  %77 = load i32, ptr %12, align 4
  %78 = icmp ult i32 %76, %77
  br i1 %78, label %79, label %92

79:                                               ; preds = %75
  %80 = load ptr, ptr %5, align 8
  %81 = load i8, ptr %80, align 1
  %82 = zext i8 %81 to i32
  %83 = shl i32 %82, 16
  %84 = load i32, ptr %10, align 4
  %85 = lshr i32 %84, 8
  %86 = or i32 %83, %85
  store i32 %86, ptr %10, align 4
  %87 = load ptr, ptr %5, align 8
  %88 = getelementptr inbounds i8, ptr %87, i32 1
  store ptr %88, ptr %5, align 8
  br label %89

89:                                               ; preds = %79
  %90 = load i32, ptr %11, align 4
  %91 = add i32 %90, 1
  store i32 %91, ptr %11, align 4
  br label %75, !llvm.loop !18

92:                                               ; preds = %75
  %93 = call ptr @localtime_r(ptr noundef %16, ptr noundef %18) #12
  store ptr %93, ptr %15, align 8
  %94 = load ptr, ptr %15, align 8
  %95 = getelementptr inbounds %struct.tm, ptr %94, i32 0, i32 0
  %96 = load i32, ptr %95, align 8
  %97 = load i32, ptr %10, align 4
  %98 = udiv i32 %97, 10000000
  %99 = add i32 %96, %98
  %100 = zext i32 %99 to i64
  store i64 %100, ptr %17, align 8
  %101 = load i32, ptr %8, align 4
  %102 = and i32 %101, 4
  %103 = icmp ne i32 %102, 0
  br i1 %103, label %104, label %111

104:                                              ; preds = %92
  %105 = load ptr, ptr %15, align 8
  %106 = getelementptr inbounds %struct.tm, ptr %105, i32 0, i32 0
  %107 = load i32, ptr %106, align 8
  %108 = add nsw i32 %107, 1
  store i32 %108, ptr %106, align 8
  %109 = load ptr, ptr %15, align 8
  %110 = call i64 @mktime(ptr noundef %109) #12
  store i64 %110, ptr %16, align 8
  br label %111

111:                                              ; preds = %104, %92
  %112 = load i32, ptr %14, align 4
  %113 = icmp eq i32 %112, 3
  br i1 %113, label %114, label %121

114:                                              ; preds = %111
  %115 = load i64, ptr %16, align 8
  %116 = load ptr, ptr %6, align 8
  %117 = getelementptr inbounds %struct.rar, ptr %116, i32 0, i32 9
  store i64 %115, ptr %117, align 8
  %118 = load i64, ptr %17, align 8
  %119 = load ptr, ptr %6, align 8
  %120 = getelementptr inbounds %struct.rar, ptr %119, i32 0, i32 10
  store i64 %118, ptr %120, align 8
  br label %150

121:                                              ; preds = %111
  %122 = load i32, ptr %14, align 4
  %123 = icmp eq i32 %122, 2
  br i1 %123, label %124, label %131

124:                                              ; preds = %121
  %125 = load i64, ptr %16, align 8
  %126 = load ptr, ptr %6, align 8
  %127 = getelementptr inbounds %struct.rar, ptr %126, i32 0, i32 19
  store i64 %125, ptr %127, align 8
  %128 = load i64, ptr %17, align 8
  %129 = load ptr, ptr %6, align 8
  %130 = getelementptr inbounds %struct.rar, ptr %129, i32 0, i32 20
  store i64 %128, ptr %130, align 8
  br label %149

131:                                              ; preds = %121
  %132 = load i32, ptr %14, align 4
  %133 = icmp eq i32 %132, 1
  br i1 %133, label %134, label %141

134:                                              ; preds = %131
  %135 = load i64, ptr %16, align 8
  %136 = load ptr, ptr %6, align 8
  %137 = getelementptr inbounds %struct.rar, ptr %136, i32 0, i32 17
  store i64 %135, ptr %137, align 8
  %138 = load i64, ptr %17, align 8
  %139 = load ptr, ptr %6, align 8
  %140 = getelementptr inbounds %struct.rar, ptr %139, i32 0, i32 18
  store i64 %138, ptr %140, align 8
  br label %148

141:                                              ; preds = %131
  %142 = load i64, ptr %16, align 8
  %143 = load ptr, ptr %6, align 8
  %144 = getelementptr inbounds %struct.rar, ptr %143, i32 0, i32 21
  store i64 %142, ptr %144, align 8
  %145 = load i64, ptr %17, align 8
  %146 = load ptr, ptr %6, align 8
  %147 = getelementptr inbounds %struct.rar, ptr %146, i32 0, i32 22
  store i64 %145, ptr %147, align 8
  br label %148

148:                                              ; preds = %141, %134
  br label %149

149:                                              ; preds = %148, %124
  br label %150

150:                                              ; preds = %149, %114
  br label %151

151:                                              ; preds = %150, %40
  br label %152

152:                                              ; preds = %151
  %153 = load i32, ptr %14, align 4
  %154 = add nsw i32 %153, -1
  store i32 %154, ptr %14, align 4
  br label %30, !llvm.loop !19

155:                                              ; preds = %30
  store i32 0, ptr %4, align 4
  br label %156

156:                                              ; preds = %155, %73, %56, %23
  %157 = load i32, ptr %4, align 4
  ret i32 %157
}