; Function Attrs: nounwind uwtable
define internal fastcc range(i32 -1, 1) i32 @read_exttime(ptr noundef nonnull readonly %0, ptr noundef captures(none) %1, ptr noundef nonnull readnone %2) unnamed_addr #0 {
  %4 = alloca %struct.tm, align 8
  %5 = alloca i64, align 8
  %6 = alloca %struct.tm, align 8
  %7 = getelementptr inbounds nuw i8, ptr %0, i64 2
  %8 = icmp ugt ptr %7, %2
  br i1 %8, label %.loopexit, label %9

9:                                                ; preds = %3
  %.val = load i16, ptr %0, align 1
  %10 = zext i16 %.val to i32
  %11 = getelementptr inbounds nuw i8, ptr %1, i64 48
  %12 = getelementptr inbounds nuw i8, ptr %4, i64 4
  %13 = getelementptr inbounds nuw i8, ptr %4, i64 8
  %14 = getelementptr inbounds nuw i8, ptr %4, i64 12
  %15 = getelementptr inbounds nuw i8, ptr %4, i64 16
  %16 = getelementptr inbounds nuw i8, ptr %4, i64 20
  %17 = getelementptr inbounds nuw i8, ptr %4, i64 32
  %18 = getelementptr inbounds nuw i8, ptr %1, i64 112
  %19 = getelementptr inbounds nuw i8, ptr %1, i64 120
  %20 = getelementptr inbounds nuw i8, ptr %1, i64 128
  %21 = getelementptr inbounds nuw i8, ptr %1, i64 136
  %22 = getelementptr inbounds nuw i8, ptr %1, i64 144
  %23 = getelementptr inbounds nuw i8, ptr %1, i64 152
  %24 = getelementptr inbounds nuw i8, ptr %1, i64 56
  %.not = icmp sgt i16 %.val, -1
  %25 = lshr i32 %10, 12
  br label %26

26:                                               ; preds = %9, %85
  %.04661 = phi ptr [ %7, %9 ], [ %.3, %85 ]
  %.04760 = phi i32 [ 3, %9 ], [ %86, %85 ]
  store i64 0, ptr %5, align 8
  %27 = icmp eq i32 %.04760, 3
  br i1 %27, label %28, label %.thread

28:                                               ; preds = %26
  %29 = load i64, ptr %11, align 8
  store i64 %29, ptr %5, align 8
  br i1 %.not, label %85, label %33

.thread:                                          ; preds = %26
  %30 = shl nsw i32 %.04760, 2
  %31 = lshr i32 %10, %30
  %32 = and i32 %31, 8
  %.not67 = icmp eq i32 %32, 0
  br i1 %.not67, label %85, label %.thread69

33:                                               ; preds = %28
  %34 = icmp eq i64 %29, 0
  br i1 %34, label %.thread69, label %54

.thread69:                                        ; preds = %.thread, %33
  %35 = phi i32 [ %25, %33 ], [ %31, %.thread ]
  %36 = getelementptr inbounds nuw i8, ptr %.04661, i64 4
  %37 = icmp ugt ptr %36, %2
  br i1 %37, label %.loopexit, label %38

38:                                               ; preds = %.thread69
  %39 = load i32, ptr %.04661, align 1
  call void @llvm.lifetime.start.p0(i64 56, ptr nonnull %4)
  %40 = shl i32 %39, 1
  %41 = and i32 %40, 62
  store i32 %41, ptr %4, align 8
  %42 = lshr i32 %39, 5
  %43 = and i32 %42, 63
  store i32 %43, ptr %12, align 4
  %44 = lshr i32 %39, 11
  %45 = and i32 %44, 31
  store i32 %45, ptr %13, align 8
  %46 = lshr i32 %39, 16
  %47 = and i32 %46, 31
  store i32 %47, ptr %14, align 4
  %48 = lshr i32 %39, 21
  %49 = and i32 %48, 15
  %50 = add nsw i32 %49, -1
  store i32 %50, ptr %15, align 8
  %51 = lshr i32 %39, 25
  %52 = add nuw nsw i32 %51, 80
  store i32 %52, ptr %16, align 4
  store i32 -1, ptr %17, align 8
  %53 = call noundef i64 @mktime(ptr noundef nonnull %4) #19
  call void @llvm.lifetime.end.p0(i64 56, ptr nonnull %4)
  store i64 %53, ptr %5, align 8
  br label %54

54:                                               ; preds = %38, %33
  %55 = phi i32 [ %25, %33 ], [ %35, %38 ]
  %.1 = phi ptr [ %.04661, %33 ], [ %36, %38 ]
  %56 = and i32 %55, 3
  %57 = zext nneg i32 %56 to i64
  %58 = getelementptr inbounds nuw i8, ptr %.1, i64 %57
  %59 = icmp ugt ptr %58, %2
  br i1 %59, label %.loopexit, label %.preheader

.preheader:                                       ; preds = %54
  %.not62 = icmp eq i32 %56, 0
  br i1 %.not62, label %._crit_edge, label %.lr.ph

.lr.ph:                                           ; preds = %.preheader, %.lr.ph
  %.258 = phi ptr [ %65, %.lr.ph ], [ %.1, %.preheader ]
  %.04857 = phi i32 [ %64, %.lr.ph ], [ 0, %.preheader ]
  %.04956 = phi i32 [ %66, %.lr.ph ], [ 0, %.preheader ]
  %60 = load i8, ptr %.258, align 1
  %61 = zext i8 %60 to i32
  %62 = shl nuw nsw i32 %61, 16
  %63 = lshr i32 %.04857, 8
  %64 = or i32 %62, %63
  %65 = getelementptr inbounds nuw i8, ptr %.258, i64 1
  %66 = add nuw nsw i32 %.04956, 1
  %exitcond.not = icmp eq i32 %66, %56
  br i1 %exitcond.not, label %._crit_edge.loopexit, label %.lr.ph, !llvm.loop !26

._crit_edge.loopexit:                             ; preds = %.lr.ph
  %scevgep = getelementptr i8, ptr %.1, i64 1
  %67 = zext nneg i32 %56 to i64
  %68 = getelementptr i8, ptr %scevgep, i64 %67
  %scevgep64 = getelementptr i8, ptr %68, i64 -1
  %.cmp = icmp samesign ugt i32 %64, 9999999
  %69 = zext i1 %.cmp to i32
  br label %._crit_edge

._crit_edge:                                      ; preds = %._crit_edge.loopexit, %.preheader
  %.048.lcssa = phi i32 [ 0, %.preheader ], [ %69, %._crit_edge.loopexit ]
  %.2.lcssa = phi ptr [ %.1, %.preheader ], [ %scevgep64, %._crit_edge.loopexit ]
  %70 = call ptr @localtime_r(ptr noundef nonnull %5, ptr noundef nonnull %6) #19
  %71 = load i32, ptr %70, align 8
  %72 = add i32 %71, %.048.lcssa
  %73 = zext i32 %72 to i64
  %74 = and i32 %55, 4
  %.not54 = icmp eq i32 %74, 0
  br i1 %.not54, label %78, label %75

75:                                               ; preds = %._crit_edge
  %76 = add nsw i32 %71, 1
  store i32 %76, ptr %70, align 8
  %77 = call i64 @mktime(ptr noundef nonnull %70) #19
  store i64 %77, ptr %5, align 8
  br label %78

78:                                               ; preds = %75, %._crit_edge
  %79 = load i64, ptr %5, align 8
  br i1 %27, label %80, label %81

80:                                               ; preds = %78
  store i64 %79, ptr %11, align 8
  store i64 %73, ptr %24, align 8
  br label %85

81:                                               ; preds = %78
  switch i32 %.04760, label %84 [
    i32 2, label %82
    i32 1, label %83
  ]

82:                                               ; preds = %81
  store i64 %79, ptr %20, align 8
  store i64 %73, ptr %21, align 8
  br label %85

83:                                               ; preds = %81
  store i64 %79, ptr %18, align 8
  store i64 %73, ptr %19, align 8
  br label %85

84:                                               ; preds = %81
  store i64 %79, ptr %22, align 8
  store i64 %73, ptr %23, align 8
  br label %85

85:                                               ; preds = %.thread, %28, %82, %84, %83, %80
  %.3 = phi ptr [ %.2.lcssa, %80 ], [ %.2.lcssa, %82 ], [ %.2.lcssa, %83 ], [ %.2.lcssa, %84 ], [ %.04661, %28 ], [ %.04661, %.thread ]
  %86 = add nsw i32 %.04760, -1
  %.not65 = icmp eq i32 %.04760, 0
  br i1 %.not65, label %.loopexit, label %26, !llvm.loop !27

.loopexit:                                        ; preds = %85, %54, %.thread69, %3
  %.0 = phi i32 [ -1, %3 ], [ 0, %85 ], [ -1, %54 ], [ -1, %.thread69 ]
  ret i32 %.0
}